; Function Attrs: mustprogress uwtable
define i64 @_Z8pj_paramP6pj_ctxP8ARG_listPKc(ptr noundef %0, ptr noundef %1, ptr noundef %2) local_unnamed_addr #8 {
  %.sroa.0 = alloca double, align 8
  store double 0.000000e+00, ptr %.sroa.0, align 8
  %4 = icmp eq ptr %0, null
  br i1 %4, label %5, label %7

5:                                                ; preds = %3
  %6 = tail call noundef ptr @_Z18pj_get_default_ctxv()
  br label %7

7:                                                ; preds = %5, %3
  %.028 = phi ptr [ %6, %5 ], [ %0, %3 ]
  %8 = getelementptr inbounds nuw i8, ptr %2, i64 1
  %9 = load i8, ptr %2, align 1, !tbaa !3
  %10 = sext i8 %9 to i32
  %memchr = tail call ptr @memchr(ptr noundef nonnull dereferenceable(1) @.str.1, i32 %10, i64 7)
  %11 = icmp eq ptr %memchr, null
  br i1 %11, label %12, label %15

12:                                               ; preds = %7
  %13 = load ptr, ptr @stderr, align 8, !tbaa !19
  %14 = tail call i64 @fwrite(ptr nonnull @.str.2, i64 35, i64 1, ptr %13) #20
  tail call void @exit(i32 noundef 1) #21
  unreachable

15:                                               ; preds = %7
  %16 = tail call noundef ptr @strchr(ptr noundef nonnull dereferenceable(1) %8, i32 noundef 61) #15
  %17 = tail call i64 @strlen(ptr noundef nonnull dereferenceable(1) %8) #15
  %.not.i = icmp eq ptr %16, null
  %18 = ptrtoint ptr %16 to i64
  %19 = ptrtoint ptr %8 to i64
  %20 = sub i64 %18, %19
  %.0.i = select i1 %.not.i, i64 %17, i64 %20
  %21 = icmp eq ptr %1, null
  br i1 %21, label %_Z15pj_param_existsP8ARG_listPKc.exit, label %.preheader.i

.preheader.i:                                     ; preds = %15, %33
  %.02127.i = phi ptr [ %34, %33 ], [ %1, %15 ]
  %22 = getelementptr inbounds nuw i8, ptr %.02127.i, i64 9
  %23 = tail call i32 @strncmp(ptr noundef nonnull %8, ptr noundef nonnull %22, i64 noundef %.0.i) #15
  %24 = icmp eq i32 %23, 0
  br i1 %24, label %25, label %30

25:                                               ; preds = %.preheader.i
  %26 = getelementptr inbounds nuw [0 x i8], ptr %22, i64 0, i64 %.0.i
  %27 = load i8, ptr %26, align 1, !tbaa !3
  switch i8 %27, label %30 [
    i8 61, label %28
    i8 0, label %28
  ]

28:                                               ; preds = %25, %25
  %29 = getelementptr inbounds nuw i8, ptr %.02127.i, i64 8
  store i8 1, ptr %29, align 8, !tbaa !3
  br label %_Z15pj_param_existsP8ARG_listPKc.exit

30:                                               ; preds = %25, %.preheader.i
  %31 = tail call i32 @strcmp(ptr noundef nonnull dereferenceable(1) %8, ptr noundef nonnull dereferenceable(5) @.str) #15
  %32 = icmp eq i32 %31, 0
  br i1 %32, label %_Z15pj_param_existsP8ARG_listPKc.exit, label %33

33:                                               ; preds = %30
  %34 = load ptr, ptr %.02127.i, align 8, !tbaa !6
  %.not25.i = icmp eq ptr %34, null
  br i1 %.not25.i, label %_Z15pj_param_existsP8ARG_listPKc.exit, label %.preheader.i, !llvm.loop !18

_Z15pj_param_existsP8ARG_listPKc.exit:            ; preds = %30, %33, %15, %28
  %.020.i = phi ptr [ %.02127.i, %28 ], [ null, %15 ], [ null, %33 ], [ null, %30 ]
  %35 = icmp eq i8 %9, 116
  br i1 %35, label %36, label %39

36:                                               ; preds = %_Z15pj_param_existsP8ARG_listPKc.exit
  %37 = icmp ne ptr %.020.i, null
  %38 = zext i1 %37 to i32
  store i32 %38, ptr %.sroa.0, align 8, !tbaa !3
  br label %.loopexit

39:                                               ; preds = %_Z15pj_param_existsP8ARG_listPKc.exit
  %40 = icmp eq ptr %.020.i, null
  br i1 %40, label %41, label %45

41:                                               ; preds = %39
  switch i8 %9, label %.loopexit [
    i8 98, label %42
    i8 105, label %42
    i8 100, label %43
    i8 114, label %43
    i8 115, label %44
  ]

42:                                               ; preds = %41, %41
  store i32 0, ptr %.sroa.0, align 8, !tbaa !3
  br label %.loopexit

43:                                               ; preds = %41, %41
  store double 0.000000e+00, ptr %.sroa.0, align 8, !tbaa !3
  br label %.loopexit

44:                                               ; preds = %41
  store ptr null, ptr %.sroa.0, align 8, !tbaa !3
  br label %.loopexit

45:                                               ; preds = %39
  %46 = getelementptr inbounds nuw i8, ptr %.020.i, i64 8
  %47 = load i8, ptr %46, align 8, !tbaa !3
  %48 = or i8 %47, 1
  store i8 %48, ptr %46, align 8, !tbaa !3
  %49 = tail call i64 @strlen(ptr noundef nonnull dereferenceable(1) %8) #15
  %50 = getelementptr inbounds nuw i8, ptr %.020.i, i64 9
  %51 = and i64 %49, 4294967295
  %52 = getelementptr inbounds nuw i8, ptr %50, i64 %51
  %53 = load i8, ptr %52, align 1, !tbaa !3
  %54 = icmp eq i8 %53, 61
  %spec.select.idx = zext i1 %54 to i64
  %spec.select = getelementptr inbounds nuw i8, ptr %52, i64 %spec.select.idx
  switch i8 %9, label %.loopexit [
    i8 105, label %55
    i8 100, label %65
    i8 114, label %67
    i8 115, label %69
    i8 98, label %70
  ]

55:                                               ; preds = %45
  %56 = tail call i64 @strtol(ptr noundef nonnull captures(none) %spec.select, ptr noundef null, i32 noundef 10) #17
  %57 = trunc i64 %56 to i32
  store i32 %57, ptr %.sroa.0, align 8, !tbaa !3
  %58 = load i8, ptr %spec.select, align 1, !tbaa !3
  %.not37 = icmp eq i8 %58, 0
  br i1 %.not37, label %.loopexit, label %.lr.ph

.lr.ph:                                           ; preds = %55, %62
  %59 = phi i8 [ %64, %62 ], [ %58, %55 ]
  %.038 = phi ptr [ %63, %62 ], [ %spec.select, %55 ]
  %60 = add i8 %59, -48
  %or.cond = icmp ult i8 %60, 10
  br i1 %or.cond, label %62, label %61

61:                                               ; preds = %.lr.ph
  tail call void @_Z22proj_context_errno_setP6pj_ctxi(ptr noundef %.028, i32 noundef 1027)
  store i32 0, ptr %.sroa.0, align 8, !tbaa !3
  br label %62

62:                                               ; preds = %.lr.ph, %61
  %63 = getelementptr inbounds nuw i8, ptr %.038, i64 1
  %64 = load i8, ptr %63, align 1, !tbaa !3
  %.not = icmp eq i8 %64, 0
  br i1 %.not, label %.loopexit, label %.lr.ph, !llvm.loop !21

65:                                               ; preds = %45
  %66 = tail call noundef double @_Z7pj_atofPKc(ptr noundef nonnull %spec.select)
  store double %66, ptr %.sroa.0, align 8, !tbaa !3
  br label %.loopexit

67:                                               ; preds = %45
  %68 = tail call noundef double @_Z10dmstor_ctxP6pj_ctxPKcPPc(ptr noundef %.028, ptr noundef nonnull %spec.select, ptr noundef null)
  store double %68, ptr %.sroa.0, align 8, !tbaa !3
  br label %.loopexit

69:                                               ; preds = %45
  store ptr %spec.select, ptr %.sroa.0, align 8, !tbaa !3
  br label %.loopexit

70:                                               ; preds = %45
  %71 = load i8, ptr %spec.select, align 1, !tbaa !3
  switch i8 %71, label %74 [
    i8 70, label %72
    i8 102, label %72
    i8 0, label %73
    i8 84, label %73
    i8 116, label %73
  ]

72:                                               ; preds = %70, %70
  store i32 0, ptr %.sroa.0, align 8, !tbaa !3
  br label %.loopexit

73:                                               ; preds = %70, %70, %70
  store i32 1, ptr %.sroa.0, align 8, !tbaa !3
  br label %.loopexit

74:                                               ; preds = %70
  tail call void @_Z22proj_context_errno_setP6pj_ctxi(ptr noundef %.028, i32 noundef 1027)
  store i32 0, ptr %.sroa.0, align 8, !tbaa !3
  br label %.loopexit

.loopexit:                                        ; preds = %62, %55, %45, %65, %67, %69, %74, %73, %72, %41, %42, %43, %44, %36
  %.sroa.0.0..sroa.0.0..sroa.0.0..sroa.0.0..sroa.0.0.34354044 = load i64, ptr %.sroa.0, align 8
  ret i64 %.sroa.0.0..sroa.0.0..sroa.0.0..sroa.0.0..sroa.0.0.34354044
}